target datalayout = "e-m:e-p270:32:32-p271:32:32-p272:64:64-i64:64-i128:128-f80:128-n8:16:32:64-S128"
target triple = "x86_64-pc-linux-gnu"

; Function Attrs: inlinehint mustprogress nounwind uwtable
define internal noundef zeroext i1 @_ZN6icu_7712_GLOBAL__N_113civilLeapYearEi(i32 noundef %0) #4 {
  %2 = alloca i32, align 4
  store i32 %0, ptr %2, align 4, !tbaa !17
  %3 = load i32, ptr %2, align 4, !tbaa !17
  %4 = mul nsw i32 11, %3
  %5 = add nsw i32 14, %4
  %6 = srem i32 %5, 30
  %7 = icmp slt i32 %6, 11
  ret i1 %7
}

; Function Attrs: mustprogress uwtable
define noundef i32 @_ZNK6icu_7720IslamicCivilCalendar20handleGetMonthLengthEiiR10UErrorCode(ptr noundef nonnull align 8 dereferenceable(192) %0, i32 noundef %1, i32 noundef %2, ptr noundef nonnull align 4 dereferenceable(4) %3) unnamed_addr #1 align 2 {
  %5 = alloca ptr, align 8
  %6 = alloca i32, align 4
  %7 = alloca i32, align 4
  %8 = alloca ptr, align 8
  %9 = alloca i32, align 4
  store ptr %0, ptr %5, align 8, !tbaa !43
  store i32 %1, ptr %6, align 4, !tbaa !17
  store i32 %2, ptr %7, align 4, !tbaa !17
  store ptr %3, ptr %8, align 8, !tbaa !12
  call void @llvm.lifetime.start.p0(i64 4, ptr %9) #8
  %10 = load i32, ptr %7, align 4, !tbaa !17
  %11 = add nsw i32 %10, 1
  %12 = srem i32 %11, 2
  %13 = add nsw i32 29, %12
  store i32 %13, ptr %9, align 4, !tbaa !17
  %14 = load i32, ptr %7, align 4, !tbaa !17
  %15 = icmp eq i32 %14, 11
  br i1 %15, label %16, label %22

16:                                               ; preds = %4
  %17 = load i32, ptr %6, align 4, !tbaa !17
  %18 = call noundef zeroext i1 @_ZN6icu_7712_GLOBAL__N_113civilLeapYearEi(i32 noundef %17)
  br i1 %18, label %19, label %22

19:                                               ; preds = %16
  %20 = load i32, ptr %9, align 4, !tbaa !17
  %21 = add nsw i32 %20, 1
  store i32 %21, ptr %9, align 4, !tbaa !17
  br label %22

22:                                               ; preds = %19, %16, %4
  %23 = load i32, ptr %9, align 4, !tbaa !17
  call void @llvm.lifetime.end.p0(i64 4, ptr %9) #8
  ret i32 %23
}