; Function Attrs: mustprogress nofree norecurse nosync nounwind willreturn memory(none) uwtable
define noundef range(i32 28, 31) i32 @_ZNK6icu_7720IslamicCivilCalendar20handleGetMonthLengthEiiR10UErrorCode(ptr nonnull readnone align 8 captures(none) %0, i32 noundef %1, i32 noundef %2, ptr nonnull readnone align 4 captures(none) %3) unnamed_addr #0 align 2 {
  %5 = add nsw i32 %2, 1
  %6 = srem i32 %5, 2
  %7 = add nsw i32 %6, 29
  %8 = icmp eq i32 %2, 11
  br i1 %8, label %9, label %14

9:                                                ; preds = %4
  %10 = mul nsw i32 %1, 11
  %11 = add nsw i32 %10, 14
  %12 = srem i32 %11, 30
  %13 = icmp slt i32 %12, 11
  %spec.select = select i1 %13, i32 30, i32 %7
  br label %14

14:                                               ; preds = %9, %4
  %.0 = phi i32 [ %7, %4 ], [ %spec.select, %9 ]
  ret i32 %.0
}